target datalayout = "e-m:e-p270:32:32-p271:32:32-p272:64:64-i64:64-i128:128-f80:128-n8:16:32:64-S128"
target triple = "x86_64-pc-linux-gnu"

%"struct.nix::StringToken" = type { ptr, i64, i8 }

; Function Attrs: mustprogress nounwind uwtable
define internal void @_ZN3nixL11unescapeStrERNS_11SymbolTableEPcm(ptr dead_on_unwind noalias writable sret(%"struct.nix::StringToken") align 8 %0, ptr noundef nonnull align 8 dereferenceable(88) %1, ptr noundef %2, i64 noundef %3) #2 {
  %5 = alloca ptr, align 8
  %6 = alloca ptr, align 8
  %7 = alloca i64, align 8
  %8 = alloca ptr, align 8
  %9 = alloca ptr, align 8
  %10 = alloca i8, align 1
  store ptr %1, ptr %5, align 8
  store ptr %2, ptr %6, align 8
  store i64 %3, ptr %7, align 8
  %11 = load ptr, ptr %6, align 8
  store ptr %11, ptr %8, align 8
  %12 = load ptr, ptr %6, align 8
  store ptr %12, ptr %9, align 8
  br label %13

13:                                               ; preds = %67, %4
  %14 = load ptr, ptr %6, align 8
  %15 = getelementptr inbounds i8, ptr %14, i32 1
  store ptr %15, ptr %6, align 8
  %16 = load i8, ptr %14, align 1
  store i8 %16, ptr %10, align 1
  %17 = icmp ne i8 %16, 0
  br i1 %17, label %18, label %70

18:                                               ; preds = %13
  %19 = load i8, ptr %10, align 1
  %20 = sext i8 %19 to i32
  %21 = icmp eq i32 %20, 92
  br i1 %21, label %22, label %49

22:                                               ; preds = %18
  %23 = load ptr, ptr %6, align 8
  %24 = getelementptr inbounds i8, ptr %23, i32 1
  store ptr %24, ptr %6, align 8
  %25 = load i8, ptr %23, align 1
  store i8 %25, ptr %10, align 1
  %26 = load i8, ptr %10, align 1
  %27 = sext i8 %26 to i32
  %28 = icmp eq i32 %27, 110
  br i1 %28, label %29, label %31

29:                                               ; preds = %22
  %30 = load ptr, ptr %9, align 8
  store i8 10, ptr %30, align 1
  br label %48

31:                                               ; preds = %22
  %32 = load i8, ptr %10, align 1
  %33 = sext i8 %32 to i32
  %34 = icmp eq i32 %33, 114
  br i1 %34, label %35, label %37

35:                                               ; preds = %31
  %36 = load ptr, ptr %9, align 8
  store i8 13, ptr %36, align 1
  br label %47

37:                                               ; preds = %31
  %38 = load i8, ptr %10, align 1
  %39 = sext i8 %38 to i32
  %40 = icmp eq i32 %39, 116
  br i1 %40, label %41, label %43

41:                                               ; preds = %37
  %42 = load ptr, ptr %9, align 8
  store i8 9, ptr %42, align 1
  br label %46

43:                                               ; preds = %37
  %44 = load i8, ptr %10, align 1
  %45 = load ptr, ptr %9, align 8
  store i8 %44, ptr %45, align 1
  br label %46

46:                                               ; preds = %43, %41
  br label %47

47:                                               ; preds = %46, %35
  br label %48

48:                                               ; preds = %47, %29
  br label %67

49:                                               ; preds = %18
  %50 = load i8, ptr %10, align 1
  %51 = sext i8 %50 to i32
  %52 = icmp eq i32 %51, 13
  br i1 %52, label %53, label %63

53:                                               ; preds = %49
  %54 = load ptr, ptr %9, align 8
  store i8 10, ptr %54, align 1
  %55 = load ptr, ptr %6, align 8
  %56 = load i8, ptr %55, align 1
  %57 = sext i8 %56 to i32
  %58 = icmp eq i32 %57, 10
  br i1 %58, label %59, label %62

59:                                               ; preds = %53
  %60 = load ptr, ptr %6, align 8
  %61 = getelementptr inbounds i8, ptr %60, i32 1
  store ptr %61, ptr %6, align 8
  br label %62

62:                                               ; preds = %59, %53
  br label %66

63:                                               ; preds = %49
  %64 = load i8, ptr %10, align 1
  %65 = load ptr, ptr %9, align 8
  store i8 %64, ptr %65, align 1
  br label %66

66:                                               ; preds = %63, %62
  br label %67

67:                                               ; preds = %66, %48
  %68 = load ptr, ptr %9, align 8
  %69 = getelementptr inbounds i8, ptr %68, i32 1
  store ptr %69, ptr %9, align 8
  br label %13, !llvm.loop !9

70:                                               ; preds = %13
  %71 = getelementptr inbounds %"struct.nix::StringToken", ptr %0, i32 0, i32 0
  %72 = load ptr, ptr %8, align 8
  store ptr %72, ptr %71, align 8
  %73 = getelementptr inbounds %"struct.nix::StringToken", ptr %0, i32 0, i32 1
  %74 = load ptr, ptr %9, align 8
  %75 = load ptr, ptr %8, align 8
  %76 = ptrtoint ptr %74 to i64
  %77 = ptrtoint ptr %75 to i64
  %78 = sub i64 %76, %77
  store i64 %78, ptr %73, align 8
  %79 = getelementptr inbounds %"struct.nix::StringToken", ptr %0, i32 0, i32 2
  store i8 0, ptr %79, align 8
  ret void
}