; Function Attrs: mustprogress nofree norecurse nosync nounwind memory(readwrite, inaccessiblemem: none) uwtable
define internal fastcc void @_ZN3nixL11unescapeStrERNS_11SymbolTableEPcm(ptr dead_on_unwind noalias nocapture writable writeonly align 8 %0, ptr noundef %1) unnamed_addr #13 {
  br label %3

3:                                                ; preds = %18, %2
  %.022 = phi ptr [ %1, %2 ], [ %.1, %18 ]
  %.0 = phi ptr [ %1, %2 ], [ %19, %18 ]
  %4 = getelementptr inbounds i8, ptr %.022, i64 1
  %5 = load i8, ptr %.022, align 1
  switch i8 %5, label %17 [
    i8 0, label %20
    i8 92, label %6
    i8 13, label %13
  ]

6:                                                ; preds = %3
  %7 = getelementptr inbounds i8, ptr %.022, i64 2
  %8 = load i8, ptr %4, align 1
  switch i8 %8, label %12 [
    i8 110, label %9
    i8 114, label %10
    i8 116, label %11
  ]

9:                                                ; preds = %6
  store i8 10, ptr %.0, align 1
  br label %18

10:                                               ; preds = %6
  store i8 13, ptr %.0, align 1
  br label %18

11:                                               ; preds = %6
  store i8 9, ptr %.0, align 1
  br label %18

12:                                               ; preds = %6
  store i8 %8, ptr %.0, align 1
  br label %18

13:                                               ; preds = %3
  store i8 10, ptr %.0, align 1
  %14 = load i8, ptr %4, align 1
  %15 = icmp eq i8 %14, 10
  %16 = getelementptr inbounds i8, ptr %.022, i64 2
  %spec.select = select i1 %15, ptr %16, ptr %4
  br label %18

17:                                               ; preds = %3
  store i8 %5, ptr %.0, align 1
  br label %18

18:                                               ; preds = %13, %17, %9, %11, %12, %10
  %.1 = phi ptr [ %7, %9 ], [ %7, %10 ], [ %7, %11 ], [ %7, %12 ], [ %4, %17 ], [ %spec.select, %13 ]
  %19 = getelementptr inbounds i8, ptr %.0, i64 1
  br label %3, !llvm.loop !11

20:                                               ; preds = %3
  store ptr %1, ptr %0, align 8
  %21 = getelementptr inbounds i8, ptr %0, i64 8
  %22 = ptrtoint ptr %.0 to i64
  %23 = ptrtoint ptr %1 to i64
  %24 = sub i64 %22, %23
  store i64 %24, ptr %21, align 8
  %25 = getelementptr inbounds i8, ptr %0, i64 16
  store i8 0, ptr %25, align 8
  ret void
}